target datalayout = "e-m:e-p270:32:32-p271:32:32-p272:64:64-i64:64-i128:128-f80:128-n8:16:32:64-S128"
target triple = "x86_64-pc-linux-gnu"

%"union.boost::atomics::detail::lock_pool::(anonymous namespace)::find_address_ptr" = type { ptr }

@_ZN5boost7atomics6detail9lock_pool12_GLOBAL__N_114g_find_addressE = internal global %"union.boost::atomics::detail::lock_pool::(anonymous namespace)::find_address_ptr" { ptr @_ZN5boost7atomics6detail9lock_pool12_GLOBAL__N_121find_address_dispatchEPVKvPKS5_m }, align 8

; Function Attrs: alwaysinline mustprogress nounwind uwtable
define linkonce_odr hidden noundef i32 @_ZN5boost7atomics6detail27convert_memory_order_to_gccENS_12memory_orderE(i32 noundef %0) #2 comdat {
  %2 = alloca i32, align 4
  store i32 %0, ptr %2, align 4, !tbaa !35
  %3 = load i32, ptr %2, align 4, !tbaa !35
  %4 = icmp eq i32 %3, 0
  br i1 %4, label %5, label %6

5:                                                ; preds = %1
  br label %28

6:                                                ; preds = %1
  %7 = load i32, ptr %2, align 4, !tbaa !35
  %8 = icmp eq i32 %7, 1
  br i1 %8, label %9, label %10

9:                                                ; preds = %6
  br label %26

10:                                               ; preds = %6
  %11 = load i32, ptr %2, align 4, !tbaa !35
  %12 = icmp eq i32 %11, 2
  br i1 %12, label %13, label %14

13:                                               ; preds = %10
  br label %24

14:                                               ; preds = %10
  %15 = load i32, ptr %2, align 4, !tbaa !35
  %16 = icmp eq i32 %15, 4
  br i1 %16, label %17, label %18

17:                                               ; preds = %14
  br label %22

18:                                               ; preds = %14
  %19 = load i32, ptr %2, align 4, !tbaa !35
  %20 = icmp eq i32 %19, 6
  %21 = select i1 %20, i32 4, i32 5
  br label %22

22:                                               ; preds = %18, %17
  %23 = phi i32 [ 3, %17 ], [ %21, %18 ]
  br label %24

24:                                               ; preds = %22, %13
  %25 = phi i32 [ 2, %13 ], [ %23, %22 ]
  br label %26

26:                                               ; preds = %24, %9
  %27 = phi i32 [ 1, %9 ], [ %25, %24 ]
  br label %28

28:                                               ; preds = %26, %5
  %29 = phi i32 [ 0, %5 ], [ %27, %26 ]
  ret i32 %29
}

; Function Attrs: alwaysinline mustprogress nounwind uwtable
define linkonce_odr hidden void @_ZN5boost7atomics6detail26core_operations_gcc_atomicILm8ELb0ELb0EE5storeERVmmNS_12memory_orderE(ptr noundef nonnull align 8 dereferenceable(8) %0, i64 noundef %1, i32 noundef %2) #2 comdat align 2 {
  %4 = alloca ptr, align 8
  %5 = alloca i64, align 8
  %6 = alloca i32, align 4
  %7 = alloca i64, align 8
  store ptr %0, ptr %4, align 8, !tbaa !3
  store i64 %1, ptr %5, align 8, !tbaa !13
  store i32 %2, ptr %6, align 4, !tbaa !35
  %8 = load ptr, ptr %4, align 8, !tbaa !3
  %9 = load i32, ptr %6, align 4, !tbaa !35
  %10 = call noundef i32 @_ZN5boost7atomics6detail27convert_memory_order_to_gccENS_12memory_orderE(i32 noundef %9) #14
  %11 = load i64, ptr %5, align 8, !tbaa !13
  store i64 %11, ptr %7, align 8, !tbaa !13
  switch i32 %10, label %12 [
    i32 3, label %14
    i32 5, label %16
  ]

12:                                               ; preds = %3
  %13 = load i64, ptr %7, align 8
  store atomic volatile i64 %13, ptr %8 monotonic, align 8
  br label %18

14:                                               ; preds = %3
  %15 = load i64, ptr %7, align 8
  store atomic volatile i64 %15, ptr %8 release, align 8
  br label %18

16:                                               ; preds = %3
  %17 = load i64, ptr %7, align 8
  store atomic volatile i64 %17, ptr %8 seq_cst, align 8
  br label %18

18:                                               ; preds = %16, %14, %12
  ret void
}

; Function Attrs: inlinehint mustprogress nounwind uwtable
define linkonce_odr hidden void @_ZN5boost7atomics6detail5cpuidERjS2_S2_S2_(ptr noundef nonnull align 4 dereferenceable(4) %0, ptr noundef nonnull align 4 dereferenceable(4) %1, ptr noundef nonnull align 4 dereferenceable(4) %2, ptr noundef nonnull align 4 dereferenceable(4) %3) #3 comdat {
  %5 = alloca ptr, align 8
  %6 = alloca ptr, align 8
  %7 = alloca ptr, align 8
  %8 = alloca ptr, align 8
  store ptr %0, ptr %5, align 8, !tbaa !3
  store ptr %1, ptr %6, align 8, !tbaa !3
  store ptr %2, ptr %7, align 8, !tbaa !3
  store ptr %3, ptr %8, align 8, !tbaa !3
  %9 = load ptr, ptr %5, align 8, !tbaa !3
  %10 = load i32, ptr %9, align 4, !tbaa !11
  %11 = load ptr, ptr %6, align 8, !tbaa !3
  %12 = load i32, ptr %11, align 4, !tbaa !11
  %13 = load ptr, ptr %7, align 8, !tbaa !3
  %14 = load i32, ptr %13, align 4, !tbaa !11
  %15 = load ptr, ptr %8, align 8, !tbaa !3
  %16 = load i32, ptr %15, align 4, !tbaa !11
  %17 = call { i32, i32, i32, i32 } asm sideeffect "cpuid\0A\09", "={ax},={bx},={cx},={dx},0,1,2,3,~{dirflag},~{fpsr},~{flags}"(i32 %10, i32 %12, i32 %14, i32 %16) #14, !srcloc !44
  %18 = extractvalue { i32, i32, i32, i32 } %17, 0
  %19 = extractvalue { i32, i32, i32, i32 } %17, 1
  %20 = extractvalue { i32, i32, i32, i32 } %17, 2
  %21 = extractvalue { i32, i32, i32, i32 } %17, 3
  store i32 %18, ptr %9, align 4, !tbaa !11
  store i32 %19, ptr %11, align 4, !tbaa !11
  store i32 %20, ptr %13, align 4, !tbaa !11
  store i32 %21, ptr %15, align 4, !tbaa !11
  ret void
}

; Function Attrs: mustprogress uwtable
define internal noundef i64 @_ZN5boost7atomics6detail9lock_pool12_GLOBAL__N_121find_address_dispatchEPVKvPKS5_m(ptr noundef %0, ptr noundef %1, i64 noundef %2) #13 {
  %4 = alloca ptr, align 8
  %5 = alloca ptr, align 8
  %6 = alloca i64, align 8
  %7 = alloca ptr, align 8
  %8 = alloca i32, align 4
  %9 = alloca i32, align 4
  %10 = alloca i32, align 4
  %11 = alloca i32, align 4
  %12 = alloca i32, align 4
  %13 = alloca %"union.boost::atomics::detail::lock_pool::(anonymous namespace)::find_address_ptr", align 8
  store ptr %0, ptr %4, align 8, !tbaa !3
  store ptr %1, ptr %5, align 8, !tbaa !3
  store i64 %2, ptr %6, align 8, !tbaa !7
  call void @llvm.lifetime.start.p0(i64 8, ptr %7) #14
  store ptr @_ZN5boost7atomics6detail20find_address_genericEPVKvPKS3_m, ptr %7, align 8, !tbaa !3
  call void @llvm.lifetime.start.p0(i64 4, ptr %8) #14
  store i32 0, ptr %8, align 4, !tbaa !11
  call void @llvm.lifetime.start.p0(i64 4, ptr %9) #14
  store i32 0, ptr %9, align 4, !tbaa !11
  call void @llvm.lifetime.start.p0(i64 4, ptr %10) #14
  store i32 0, ptr %10, align 4, !tbaa !11
  call void @llvm.lifetime.start.p0(i64 4, ptr %11) #14
  store i32 0, ptr %11, align 4, !tbaa !11
  call void @_ZN5boost7atomics6detail5cpuidERjS2_S2_S2_(ptr noundef nonnull align 4 dereferenceable(4) %8, ptr noundef nonnull align 4 dereferenceable(4) %9, ptr noundef nonnull align 4 dereferenceable(4) %10, ptr noundef nonnull align 4 dereferenceable(4) %11)
  call void @llvm.lifetime.start.p0(i64 4, ptr %12) #14
  %14 = load i32, ptr %8, align 4, !tbaa !11
  store i32 %14, ptr %12, align 4, !tbaa !11
  %15 = load i32, ptr %12, align 4, !tbaa !11
  %16 = icmp uge i32 %15, 1
  br i1 %16, label %17, label %28

17:                                               ; preds = %3
  store i32 1, ptr %8, align 4, !tbaa !11
  store i32 0, ptr %11, align 4, !tbaa !11
  store i32 0, ptr %10, align 4, !tbaa !11
  store i32 0, ptr %9, align 4, !tbaa !11
  call void @_ZN5boost7atomics6detail5cpuidERjS2_S2_S2_(ptr noundef nonnull align 4 dereferenceable(4) %8, ptr noundef nonnull align 4 dereferenceable(4) %9, ptr noundef nonnull align 4 dereferenceable(4) %10, ptr noundef nonnull align 4 dereferenceable(4) %11)
  %18 = load i32, ptr %11, align 4, !tbaa !11
  %19 = and i32 %18, 67108864
  %20 = icmp ne i32 %19, 0
  br i1 %20, label %21, label %22

21:                                               ; preds = %17
  store ptr @_ZN5boost7atomics6detail17find_address_sse2EPVKvPKS3_m, ptr %7, align 8, !tbaa !3
  br label %22

22:                                               ; preds = %21, %17
  %23 = load i32, ptr %10, align 4, !tbaa !11
  %24 = and i32 %23, 524288
  %25 = icmp ne i32 %24, 0
  br i1 %25, label %26, label %27

26:                                               ; preds = %22
  store ptr @_ZN5boost7atomics6detail18find_address_sse41EPVKvPKS3_m, ptr %7, align 8, !tbaa !3
  br label %27

27:                                               ; preds = %26, %22
  br label %28

28:                                               ; preds = %27, %3
  call void @llvm.lifetime.start.p0(i64 8, ptr %13) #14
  call void @llvm.memset.p0.i64(ptr align 8 %13, i8 0, i64 8, i1 false)
  %29 = load ptr, ptr %7, align 8, !tbaa !3
  store ptr %29, ptr %13, align 8, !tbaa !13
  %30 = load i64, ptr %13, align 8, !tbaa !13
  call void @_ZN5boost7atomics6detail26core_operations_gcc_atomicILm8ELb0ELb0EE5storeERVmmNS_12memory_orderE(ptr noundef nonnull align 8 dereferenceable(8) @_ZN5boost7atomics6detail9lock_pool12_GLOBAL__N_114g_find_addressE, i64 noundef %30, i32 noundef 0) #14
  %31 = load ptr, ptr %7, align 8, !tbaa !3
  %32 = load ptr, ptr %4, align 8, !tbaa !3
  %33 = load ptr, ptr %5, align 8, !tbaa !3
  %34 = load i64, ptr %6, align 8, !tbaa !7
  %35 = call noundef i64 %31(ptr noundef %32, ptr noundef %33, i64 noundef %34)
  call void @llvm.lifetime.end.p0(i64 8, ptr %13) #14
  call void @llvm.lifetime.end.p0(i64 4, ptr %12) #14
  call void @llvm.lifetime.end.p0(i64 4, ptr %11) #14
  call void @llvm.lifetime.end.p0(i64 4, ptr %10) #14
  call void @llvm.lifetime.end.p0(i64 4, ptr %9) #14
  call void @llvm.lifetime.end.p0(i64 4, ptr %8) #14
  call void @llvm.lifetime.end.p0(i64 8, ptr %7) #14
  ret i64 %35
}