; Function Attrs: mustprogress uwtable
define internal noundef i64 @_ZN5boost7atomics6detail9lock_pool12_GLOBAL__N_121find_address_dispatchEPVKvPKS5_m(ptr noundef %0, ptr noundef %1, i64 noundef %2) #15 {
  %4 = tail call { i32, i32, i32, i32 } asm sideeffect "cpuid\0A\09", "={ax},={bx},={cx},={dx},0,1,2,3,~{dirflag},~{fpsr},~{flags}"(i32 0, i32 0, i32 0, i32 0) #17, !srcloc !40
  %5 = extractvalue { i32, i32, i32, i32 } %4, 0
  %.not = icmp eq i32 %5, 0
  br i1 %.not, label %12, label %6

6:                                                ; preds = %3
  %7 = tail call { i32, i32, i32, i32 } asm sideeffect "cpuid\0A\09", "={ax},={bx},={cx},={dx},0,1,2,3,~{dirflag},~{fpsr},~{flags}"(i32 1, i32 0, i32 0, i32 0) #17, !srcloc !40
  %8 = extractvalue { i32, i32, i32, i32 } %7, 2
  %9 = extractvalue { i32, i32, i32, i32 } %7, 3
  %10 = and i32 %9, 67108864
  %.not5 = icmp eq i32 %10, 0
  %spec.select = select i1 %.not5, ptr @_ZN5boost7atomics6detail20find_address_genericEPVKvPKS3_m, ptr @_ZN5boost7atomics6detail17find_address_sse2EPVKvPKS3_m
  %11 = and i32 %8, 524288
  %.not6 = icmp eq i32 %11, 0
  %spec.select7 = select i1 %.not6, ptr %spec.select, ptr @_ZN5boost7atomics6detail18find_address_sse41EPVKvPKS3_m
  br label %12

12:                                               ; preds = %6, %3
  %.0 = phi ptr [ @_ZN5boost7atomics6detail20find_address_genericEPVKvPKS3_m, %3 ], [ %spec.select7, %6 ]
  %13 = ptrtoint ptr %.0 to i64
  store atomic volatile i64 %13, ptr @_ZN5boost7atomics6detail9lock_pool12_GLOBAL__N_114g_find_addressE monotonic, align 8
  %14 = tail call noundef i64 %.0(ptr noundef %0, ptr noundef %1, i64 noundef %2), !callees !41
  ret i64 %14
}